; ModuleID = '12/863.c'
source_filename = "12/863.c"
target datalayout = "e-m:e-p270:32:32-p271:32:32-p272:64:64-i64:64-f80:128-n8:16:32:64-S128"
target triple = "x86_64-pc-linux-gnu"

@.str = private unnamed_addr constant [3 x i8] c"%d\00", align 1
@.str.1 = private unnamed_addr constant [4 x i8] c"%d\0A\00", align 1

; Function Attrs: noinline nounwind uwtable
define dso_local i32 @main() #0 {
  %1 = alloca i32, align 4
  %2 = alloca [16 x i32], align 16
  %3 = alloca i32, align 4
  %4 = alloca i32, align 4
  %5 = alloca i32, align 4
  %6 = alloca i32, align 4
  %7 = alloca i32, align 4
  store i32 0, i32* %1, align 4
  store i32 0, i32* %3, align 4
  store i32 1, i32* %6, align 4
  br label %8

8:                                                ; preds = %102, %0
  store i32 0, i32* %4, align 4
  store i32 0, i32* %3, align 4
  br label %9

9:                                                ; preds = %30, %8
  %10 = load i32, i32* %4, align 4
  %11 = sext i32 %10 to i64
  %12 = getelementptr inbounds [16 x i32], [16 x i32]* %2, i64 0, i64 %11
  %13 = call i32 (i8*, ...) @__isoc99_scanf(i8* getelementptr inbounds ([3 x i8], [3 x i8]* @.str, i64 0, i64 0), i32* %12)
  %14 = load i32, i32* %4, align 4
  %15 = add nsw i32 %14, 1
  store i32 %15, i32* %4, align 4
  br label %16

16:                                               ; preds = %9
  %17 = load i32, i32* %4, align 4
  %18 = sub nsw i32 %17, 1
  %19 = sext i32 %18 to i64
  %20 = getelementptr inbounds [16 x i32], [16 x i32]* %2, i64 0, i64 %19
  %21 = load i32, i32* %20, align 4
  %22 = icmp ne i32 %21, 0
  br i1 %22, label %23, label %30

23:                                               ; preds = %16
  %24 = getelementptr inbounds [16 x i32], [16 x i32]* %2, i64 0, i64 0
  %25 = load i32, i32* %24, align 16
  %26 = icmp ne i32 %25, -1
  br i1 %26, label %27, label %30

27:                                               ; preds = %23
  %28 = load i32, i32* %4, align 4
  %29 = icmp slt i32 %28, 16
  br label %30

30:                                               ; preds = %27, %23, %16
  %31 = phi i1 [ false, %23 ], [ false, %16 ], [ %29, %27 ]
  br i1 %31, label %9, label %32

32:                                               ; preds = %30
  %33 = load i32, i32* %4, align 4
  %34 = sub nsw i32 %33, 1
  store i32 %34, i32* %7, align 4
  %35 = getelementptr inbounds [16 x i32], [16 x i32]* %2, i64 0, i64 0
  %36 = load i32, i32* %35, align 16
  %37 = icmp ne i32 %36, -1
  br i1 %37, label %38, label %100

38:                                               ; preds = %32
  store i32 0, i32* %4, align 4
  br label %39

39:                                               ; preds = %94, %38
  %40 = load i32, i32* %4, align 4
  %41 = load i32, i32* %7, align 4
  %42 = icmp slt i32 %40, %41
  br i1 %42, label %43, label %97

43:                                               ; preds = %39
  %44 = load i32, i32* %4, align 4
  %45 = add nsw i32 %44, 1
  store i32 %45, i32* %5, align 4
  br label %46

46:                                               ; preds = %90, %43
  %47 = load i32, i32* %5, align 4
  %48 = load i32, i32* %7, align 4
  %49 = add nsw i32 %48, 1
  %50 = icmp slt i32 %47, %49
  br i1 %50, label %51, label %93

51:                                               ; preds = %46
  %52 = load i32, i32* %4, align 4
  %53 = sext i32 %52 to i64
  %54 = getelementptr inbounds [16 x i32], [16 x i32]* %2, i64 0, i64 %53
  %55 = load i32, i32* %54, align 4
  %56 = icmp sgt i32 %55, 0
  br i1 %56, label %57, label %89

57:                                               ; preds = %51
  %58 = load i32, i32* %5, align 4
  %59 = sext i32 %58 to i64
  %60 = getelementptr inbounds [16 x i32], [16 x i32]* %2, i64 0, i64 %59
  %61 = load i32, i32* %60, align 4
  %62 = icmp sgt i32 %61, 0
  br i1 %62, label %63, label %89

63:                                               ; preds = %57
  %64 = load i32, i32* %4, align 4
  %65 = sext i32 %64 to i64
  %66 = getelementptr inbounds [16 x i32], [16 x i32]* %2, i64 0, i64 %65
  %67 = load i32, i32* %66, align 4
  %68 = load i32, i32* %5, align 4
  %69 = sext i32 %68 to i64
  %70 = getelementptr inbounds [16 x i32], [16 x i32]* %2, i64 0, i64 %69
  %71 = load i32, i32* %70, align 4
  %72 = mul nsw i32 %71, 2
  %73 = icmp eq i32 %67, %72
  br i1 %73, label %85, label %74

74:                                               ; preds = %63
  %75 = load i32, i32* %5, align 4
  %76 = sext i32 %75 to i64
  %77 = getelementptr inbounds [16 x i32], [16 x i32]* %2, i64 0, i64 %76
  %78 = load i32, i32* %77, align 4
  %79 = load i32, i32* %4, align 4
  %80 = sext i32 %79 to i64
  %81 = getelementptr inbounds [16 x i32], [16 x i32]* %2, i64 0, i64 %80
  %82 = load i32, i32* %81, align 4
  %83 = mul nsw i32 %82, 2
  %84 = icmp eq i32 %78, %83
  br i1 %84, label %85, label %88

85:                                               ; preds = %74, %63
  %86 = load i32, i32* %3, align 4
  %87 = add nsw i32 %86, 1
  store i32 %87, i32* %3, align 4
  br label %88

88:                                               ; preds = %85, %74
  br label %89

89:                                               ; preds = %88, %57, %51
  br label %90

90:                                               ; preds = %89
  %91 = load i32, i32* %5, align 4
  %92 = add nsw i32 %91, 1
  store i32 %92, i32* %5, align 4
  br label %46

93:                                               ; preds = %46
  br label %94

94:                                               ; preds = %93
  %95 = load i32, i32* %4, align 4
  %96 = add nsw i32 %95, 1
  store i32 %96, i32* %4, align 4
  br label %39

97:                                               ; preds = %39
  %98 = load i32, i32* %3, align 4
  %99 = call i32 (i8*, ...) @printf(i8* getelementptr inbounds ([4 x i8], [4 x i8]* @.str.1, i64 0, i64 0), i32 %98)
  br label %101

100:                                              ; preds = %32
  store i32 0, i32* %6, align 4
  br label %101

101:                                              ; preds = %100, %97
  br label %102

102:                                              ; preds = %101
  %103 = load i32, i32* %6, align 4
  %104 = icmp eq i32 %103, 1
  br i1 %104, label %8, label %105

105:                                              ; preds = %102
  ret i32 0
}

declare dso_local i32 @__isoc99_scanf(i8*, ...) #1

declare dso_local i32 @printf(i8*, ...) #1


!llvm.module.flags = !{!0}
!llvm.ident = !{!1}

!0 = !{i32 1, !"wchar_size", i32 4}
!1 = !{!"clang version 10.0.0-4ubuntu1 "}
